target datalayout = "e-m:e-p270:32:32-p271:32:32-p272:64:64-i64:64-i128:128-f80:128-n8:16:32:64-S128"
target triple = "x86_64-pc-linux-gnu"

@err_thread_local = internal global i32 0, align 4
@err_init = internal global i32 0, align 4
@err_do_init_ossl_ret_ = internal global i32 0, align 4

; Function Attrs: nounwind uwtable
define i32 @err_shelve_state(ptr noundef %0) #0 {
  %2 = alloca i32, align 4
  %3 = alloca ptr, align 8
  %4 = alloca i32, align 4
  %5 = alloca i32, align 4
  store ptr %0, ptr %3, align 8, !tbaa !16
  call void @llvm.lifetime.start.p0(i64 4, ptr %4) #8
  %6 = call ptr @__errno_location() #9
  %7 = load i32, ptr %6, align 4, !tbaa !8
  store i32 %7, ptr %4, align 4, !tbaa !8
  %8 = call i32 @OPENSSL_init_crypto(i64 noundef 262144, ptr noundef null)
  %9 = icmp ne i32 %8, 0
  br i1 %9, label %11, label %10

10:                                               ; preds = %1
  store i32 0, ptr %2, align 4
  store i32 1, ptr %5, align 4
  br label %28

11:                                               ; preds = %1
  %12 = call i32 @CRYPTO_THREAD_run_once(ptr noundef @err_init, ptr noundef @err_do_init_ossl_)
  %13 = icmp ne i32 %12, 0
  br i1 %13, label %14, label %17

14:                                               ; preds = %11
  %15 = load i32, ptr @err_do_init_ossl_ret_, align 4, !tbaa !8
  %16 = icmp ne i32 %15, 0
  br i1 %16, label %19, label %18

17:                                               ; preds = %11
  br i1 false, label %19, label %18

18:                                               ; preds = %17, %14
  store i32 0, ptr %2, align 4
  store i32 1, ptr %5, align 4
  br label %28

19:                                               ; preds = %17, %14
  %20 = call ptr @CRYPTO_THREAD_get_local(ptr noundef @err_thread_local)
  %21 = load ptr, ptr %3, align 8, !tbaa !16
  store ptr %20, ptr %21, align 8, !tbaa !16
  %22 = call i32 @CRYPTO_THREAD_set_local(ptr noundef @err_thread_local, ptr noundef inttoptr (i64 -1 to ptr))
  %23 = icmp ne i32 %22, 0
  br i1 %23, label %25, label %24

24:                                               ; preds = %19
  store i32 0, ptr %2, align 4
  store i32 1, ptr %5, align 4
  br label %28

25:                                               ; preds = %19
  %26 = load i32, ptr %4, align 4, !tbaa !8
  %27 = call ptr @__errno_location() #9
  store i32 %26, ptr %27, align 4, !tbaa !8
  store i32 1, ptr %2, align 4
  store i32 1, ptr %5, align 4
  br label %28

28:                                               ; preds = %25, %24, %18, %10
  call void @llvm.lifetime.end.p0(i64 4, ptr %4) #8
  %29 = load i32, ptr %2, align 4
  ret i32 %29
}