; Function Attrs: nounwind uwtable
define range(i32 0, 2) i32 @err_shelve_state(ptr noundef writeonly captures(none) %0) local_unnamed_addr #0 {
  %2 = tail call ptr @__errno_location() #11
  %3 = load i32, ptr %2, align 4, !tbaa !3
  %4 = tail call i32 @OPENSSL_init_crypto(i64 noundef 262144, ptr noundef null) #10
  %.not = icmp eq i32 %4, 0
  br i1 %.not, label %14, label %5

5:                                                ; preds = %1
  %6 = tail call i32 @CRYPTO_THREAD_run_once(ptr noundef nonnull @err_init, ptr noundef nonnull @err_do_init_ossl_) #10
  %7 = icmp ne i32 %6, 0
  %8 = load i32, ptr @err_do_init_ossl_ret_, align 4
  %9 = icmp ne i32 %8, 0
  %or.cond = select i1 %7, i1 %9, i1 false
  br i1 %or.cond, label %10, label %14

10:                                               ; preds = %5
  %11 = tail call ptr @CRYPTO_THREAD_get_local(ptr noundef nonnull @err_thread_local) #10
  store ptr %11, ptr %0, align 8, !tbaa !14
  %12 = tail call i32 @CRYPTO_THREAD_set_local(ptr noundef nonnull @err_thread_local, ptr noundef nonnull inttoptr (i64 -1 to ptr)) #10
  %.not3 = icmp eq i32 %12, 0
  br i1 %.not3, label %14, label %13

13:                                               ; preds = %10
  store i32 %3, ptr %2, align 4, !tbaa !3
  br label %14

14:                                               ; preds = %10, %5, %1, %13
  %.0 = phi i32 [ 1, %13 ], [ 0, %1 ], [ 0, %5 ], [ 0, %10 ]
  ret i32 %.0
}